# SymbolsHelper-Confirmed: 5.94.0 amd64
libKF5PrisonScanner.so.5 libkf5prisonscanner5 #MINVER#
* Build-Depends-Package: libkf5prison-dev
 _ZN6Prison10ScanResult16staticMetaObjectE@Base 5.94.0
 _ZN6Prison10ScanResultC1ERKS0_@Base 5.94.0
 _ZN6Prison10ScanResultC1Ev@Base 5.94.0
 _ZN6Prison10ScanResultC2ERKS0_@Base 5.94.0
 _ZN6Prison10ScanResultC2Ev@Base 5.94.0
 _ZN6Prison10ScanResultD1Ev@Base 5.94.0
 _ZN6Prison10ScanResultD2Ev@Base 5.94.0
 _ZN6Prison10ScanResultaSERKS0_@Base 5.94.0
 _ZN6Prison12VideoScanner10setFormatsE6QFlagsINS_6Format13BarcodeFormatEE@Base 5.94.0
 _ZN6Prison12VideoScanner11qt_metacallEN11QMetaObject4CallEiPPv@Base 5.94.0
 _ZN6Prison12VideoScanner11qt_metacastEPKc@Base 5.94.0
 _ZN6Prison12VideoScanner13resultChangedERKNS_10ScanResultE@Base 5.94.0
 _ZN6Prison12VideoScanner14formatsChangedEv@Base 5.94.0
 _ZN6Prison12VideoScanner16staticMetaObjectE@Base 5.94.0
 _ZN6Prison12VideoScanner16videoSinkChangedEv@Base 5.94.0
 _ZN6Prison12VideoScanner20createFilterRunnableEv@Base 5.94.0
 _ZN6Prison12VideoScanner20resultContentChangedERKNS_10ScanResultE@Base 5.94.0
 _ZN6Prison12VideoScannerC1EP7QObject@Base 5.94.0
 _ZN6Prison12VideoScannerC2EP7QObject@Base 5.94.0
 _ZN6Prison12VideoScannerD0Ev@Base 5.94.0
 _ZN6Prison12VideoScannerD1Ev@Base 5.94.0
 _ZN6Prison12VideoScannerD2Ev@Base 5.94.0
 _ZN6Prison6Format16staticMetaObjectE@Base 5.94.0
 _ZNK6Prison10ScanResult10binaryDataEv@Base 5.94.0
 _ZNK6Prison10ScanResult10hasContentEv@Base 5.94.0
 _ZNK6Prison10ScanResult12boundingRectEv@Base 5.94.0
 _ZNK6Prison10ScanResult13hasBinaryDataEv@Base 5.94.0
 _ZNK6Prison10ScanResult4textEv@Base 5.94.0
 _ZNK6Prison10ScanResult6formatEv@Base 5.94.0
 _ZNK6Prison10ScanResult7contentEv@Base 5.94.0
 _ZNK6Prison10ScanResult7hasTextEv@Base 5.94.0
 _ZNK6Prison10ScanResulteqERKS0_@Base 5.94.0
 _ZNK6Prison12VideoScanner10metaObjectEv@Base 5.94.0
 _ZNK6Prison12VideoScanner6resultEv@Base 5.94.0
 _ZNK6Prison12VideoScanner7formatsEv@Base 5.94.0
 _ZTIN6Prison12VideoScannerE@Base 5.94.0
 _ZTSN6Prison12VideoScannerE@Base 5.94.0
 _ZTVN6Prison12VideoScannerE@Base 5.94.0
