# SymbolsHelper-Confirmed: 5.85.0 alpha amd64 arm64 armel armhf hurd-i386 i386 ia64 m68k mips64el ppc64el riscv64 sh4 x32
libKF5Prison.so.5 libkf5prison5 #MINVER#
* Build-Depends-Package: libkf5prison-dev
 _ZN6Prison13createBarcodeENS_11BarcodeTypeE@Base 5.25.0~
 _ZN6Prison15AbstractBarcode14setMinimumSizeERK6QSizeF@Base 5.25.0~
 _ZN6Prison15AbstractBarcode18setBackgroundColorERK6QColor@Base 5.25.0~
 _ZN6Prison15AbstractBarcode18setForegroundColorERK6QColor@Base 5.25.0~
 _ZN6Prison15AbstractBarcode7setDataERK10QByteArray@Base 5.85.0
 _ZN6Prison15AbstractBarcode7setDataERK7QString@Base 5.25.0~
 _ZN6Prison15AbstractBarcode7toImageERK6QSizeF@Base 5.25.0~
 _ZN6Prison15AbstractBarcodeC1ENS0_10DimensionsE@Base 5.69.0
 _ZN6Prison15AbstractBarcodeC1Ev@Base 5.25.0~
 _ZN6Prison15AbstractBarcodeC2ENS0_10DimensionsE@Base 5.69.0
 _ZN6Prison15AbstractBarcodeC2Ev@Base 5.25.0~
 _ZN6Prison15AbstractBarcodeD0Ev@Base 5.25.0~
 _ZN6Prison15AbstractBarcodeD1Ev@Base 5.25.0~
 _ZN6Prison15AbstractBarcodeD2Ev@Base 5.25.0~
 _ZNK6Prison15AbstractBarcode10dimensionsEv@Base 5.69.0
 _ZNK6Prison15AbstractBarcode11minimumSizeEv@Base 5.25.0~
 _ZNK6Prison15AbstractBarcode13byteArrayDataEv@Base 5.85.0
 _ZNK6Prison15AbstractBarcode13preferredSizeEd@Base 5.69.0
 _ZNK6Prison15AbstractBarcode15backgroundColorEv@Base 5.25.0~
 _ZNK6Prison15AbstractBarcode15foregroundColorEv@Base 5.25.0~
 _ZNK6Prison15AbstractBarcode15trueMinimumSizeEv@Base 5.69.0
 _ZNK6Prison15AbstractBarcode4dataEv@Base 5.25.0~
 _ZTIN6Prison15AbstractBarcodeE@Base 5.25.0~
 _ZTSN6Prison15AbstractBarcodeE@Base 5.25.0~
 _ZTVN6Prison15AbstractBarcodeE@Base 5.25.0~
